
_forktest:     file format elf32-i386


Disassembly of section .text:

00000000 <printf>:

#define N  1000

void
printf(int fd, char *s, ...)
{
   0:	55                   	push   %ebp
   1:	89 e5                	mov    %esp,%ebp
   3:	53                   	push   %ebx
   4:	83 ec 14             	sub    $0x14,%esp
   7:	8b 5d 0c             	mov    0xc(%ebp),%ebx
  write(fd, s, strlen(s));
   a:	89 1c 24             	mov    %ebx,(%esp)
   d:	e8 9e 01 00 00       	call   1b0 <strlen>
  12:	89 5c 24 04          	mov    %ebx,0x4(%esp)
  16:	89 44 24 08          	mov    %eax,0x8(%esp)
  1a:	8b 45 08             	mov    0x8(%ebp),%eax
  1d:	89 04 24             	mov    %eax,(%esp)
  20:	e8 53 03 00 00       	call   378 <write>
}
  25:	83 c4 14             	add    $0x14,%esp
  28:	5b                   	pop    %ebx
  29:	5d                   	pop    %ebp
  2a:	c3                   	ret    
  2b:	90                   	nop
  2c:	8d 74 26 00          	lea    0x0(%esi,%eiz,1),%esi

00000030 <forktest>:

void
forktest(void)
{
  30:	55                   	push   %ebp
  31:	89 e5                	mov    %esp,%ebp
  33:	53                   	push   %ebx
  int n, pid;

  printf(1, "fork test\n");
  34:	31 db                	xor    %ebx,%ebx
  write(fd, s, strlen(s));
}

void
forktest(void)
{
  36:	83 ec 14             	sub    $0x14,%esp
  int n, pid;

  printf(1, "fork test\n");
  39:	c7 44 24 04 00 04 00 	movl   $0x400,0x4(%esp)
  40:	00 
  41:	c7 04 24 01 00 00 00 	movl   $0x1,(%esp)
  48:	e8 b3 ff ff ff       	call   0 <printf>
  4d:	eb 0e                	jmp    5d <forktest+0x2d>
  4f:	90                   	nop

  for(n=0; n<N; n++){
    pid = fork();
    if(pid < 0)
      break;
    if(pid == 0)
  50:	74 72                	je     c4 <forktest+0x94>
{
  int n, pid;

  printf(1, "fork test\n");

  for(n=0; n<N; n++){
  52:	83 c3 01             	add    $0x1,%ebx
  55:	81 fb e8 03 00 00    	cmp    $0x3e8,%ebx
  5b:	74 4b                	je     a8 <forktest+0x78>
    pid = fork();
  5d:	e8 ee 02 00 00       	call   350 <fork>
    if(pid < 0)
  62:	83 f8 00             	cmp    $0x0,%eax
  65:	7d e9                	jge    50 <forktest+0x20>
  if(n == N){
    printf(1, "fork claimed to work N times!\n", N);
    exit(0);
  }

  for(; n > 0; n--){
  67:	85 db                	test   %ebx,%ebx
  69:	74 13                	je     7e <forktest+0x4e>
  6b:	90                   	nop
  6c:	8d 74 26 00          	lea    0x0(%esi,%eiz,1),%esi
    if(wait() < 0){
  70:	e8 eb 02 00 00       	call   360 <wait>
  75:	85 c0                	test   %eax,%eax
  77:	78 57                	js     d0 <forktest+0xa0>
  if(n == N){
    printf(1, "fork claimed to work N times!\n", N);
    exit(0);
  }

  for(; n > 0; n--){
  79:	83 eb 01             	sub    $0x1,%ebx
  7c:	75 f2                	jne    70 <forktest+0x40>
  7e:	66 90                	xchg   %ax,%ax
      printf(1, "wait stopped early\n");
      exit(0);
    }
  }

  if(wait() != -1){
  80:	e8 db 02 00 00       	call   360 <wait>
  85:	83 f8 ff             	cmp    $0xffffffff,%eax
  88:	75 66                	jne    f0 <forktest+0xc0>
    printf(1, "wait got too many\n");
    exit(0);
  }

  printf(1, "fork test OK\n");
  8a:	c7 44 24 04 32 04 00 	movl   $0x432,0x4(%esp)
  91:	00 
  92:	c7 04 24 01 00 00 00 	movl   $0x1,(%esp)
  99:	e8 62 ff ff ff       	call   0 <printf>
}
  9e:	83 c4 14             	add    $0x14,%esp
  a1:	5b                   	pop    %ebx
  a2:	5d                   	pop    %ebp
  a3:	c3                   	ret    
  a4:	8d 74 26 00          	lea    0x0(%esi,%eiz,1),%esi
    if(pid == 0)
      exit(0);
  }

  if(n == N){
    printf(1, "fork claimed to work N times!\n", N);
  a8:	c7 44 24 08 e8 03 00 	movl   $0x3e8,0x8(%esp)
  af:	00 
  b0:	c7 44 24 04 40 04 00 	movl   $0x440,0x4(%esp)
  b7:	00 
  b8:	c7 04 24 01 00 00 00 	movl   $0x1,(%esp)
  bf:	e8 3c ff ff ff       	call   0 <printf>
    exit(0);
  c4:	c7 04 24 00 00 00 00 	movl   $0x0,(%esp)
  cb:	e8 88 02 00 00       	call   358 <exit>
  }

  for(; n > 0; n--){
    if(wait() < 0){
      printf(1, "wait stopped early\n");
  d0:	c7 44 24 04 0b 04 00 	movl   $0x40b,0x4(%esp)
  d7:	00 
  d8:	c7 04 24 01 00 00 00 	movl   $0x1,(%esp)
  df:	e8 1c ff ff ff       	call   0 <printf>
      exit(0);
  e4:	c7 04 24 00 00 00 00 	movl   $0x0,(%esp)
  eb:	e8 68 02 00 00       	call   358 <exit>
    }
  }

  if(wait() != -1){
    printf(1, "wait got too many\n");
  f0:	c7 44 24 04 1f 04 00 	movl   $0x41f,0x4(%esp)
  f7:	00 
  f8:	c7 04 24 01 00 00 00 	movl   $0x1,(%esp)
  ff:	e8 fc fe ff ff       	call   0 <printf>
    exit(0);
 104:	c7 04 24 00 00 00 00 	movl   $0x0,(%esp)
 10b:	e8 48 02 00 00       	call   358 <exit>

00000110 <main>:
  printf(1, "fork test OK\n");
}

int
main(void)
{
 110:	55                   	push   %ebp
 111:	89 e5                	mov    %esp,%ebp
 113:	83 e4 f0             	and    $0xfffffff0,%esp
 116:	83 ec 10             	sub    $0x10,%esp
  forktest();
 119:	e8 12 ff ff ff       	call   30 <forktest>
  exit(0);
 11e:	c7 04 24 00 00 00 00 	movl   $0x0,(%esp)
 125:	e8 2e 02 00 00       	call   358 <exit>
 12a:	90                   	nop
 12b:	90                   	nop
 12c:	90                   	nop
 12d:	90                   	nop
 12e:	90                   	nop
 12f:	90                   	nop

00000130 <strcpy>:
#include "user.h"
#include "x86.h"

char*
strcpy(char *s, char *t)
{
 130:	55                   	push   %ebp
 131:	31 d2                	xor    %edx,%edx
 133:	89 e5                	mov    %esp,%ebp
 135:	8b 45 08             	mov    0x8(%ebp),%eax
 138:	53                   	push   %ebx
 139:	8b 5d 0c             	mov    0xc(%ebp),%ebx
 13c:	8d 74 26 00          	lea    0x0(%esi,%eiz,1),%esi
  char *os;

  os = s;
  while((*s++ = *t++) != 0)
 140:	0f b6 0c 13          	movzbl (%ebx,%edx,1),%ecx
 144:	88 0c 10             	mov    %cl,(%eax,%edx,1)
 147:	83 c2 01             	add    $0x1,%edx
 14a:	84 c9                	test   %cl,%cl
 14c:	75 f2                	jne    140 <strcpy+0x10>
    ;
  return os;
}
 14e:	5b                   	pop    %ebx
 14f:	5d                   	pop    %ebp
 150:	c3                   	ret    
 151:	eb 0d                	jmp    160 <strcmp>
 153:	90                   	nop
 154:	90                   	nop
 155:	90                   	nop
 156:	90                   	nop
 157:	90                   	nop
 158:	90                   	nop
 159:	90                   	nop
 15a:	90                   	nop
 15b:	90                   	nop
 15c:	90                   	nop
 15d:	90                   	nop
 15e:	90                   	nop
 15f:	90                   	nop

00000160 <strcmp>:

int
strcmp(const char *p, const char *q)
{
 160:	55                   	push   %ebp
 161:	89 e5                	mov    %esp,%ebp
 163:	8b 4d 08             	mov    0x8(%ebp),%ecx
 166:	53                   	push   %ebx
 167:	8b 55 0c             	mov    0xc(%ebp),%edx
  while(*p && *p == *q)
 16a:	0f b6 01             	movzbl (%ecx),%eax
 16d:	84 c0                	test   %al,%al
 16f:	75 14                	jne    185 <strcmp+0x25>
 171:	eb 25                	jmp    198 <strcmp+0x38>
 173:	90                   	nop
 174:	8d 74 26 00          	lea    0x0(%esi,%eiz,1),%esi
    p++, q++;
 178:	83 c1 01             	add    $0x1,%ecx
 17b:	83 c2 01             	add    $0x1,%edx
}

int
strcmp(const char *p, const char *q)
{
  while(*p && *p == *q)
 17e:	0f b6 01             	movzbl (%ecx),%eax
 181:	84 c0                	test   %al,%al
 183:	74 13                	je     198 <strcmp+0x38>
 185:	0f b6 1a             	movzbl (%edx),%ebx
 188:	38 d8                	cmp    %bl,%al
 18a:	74 ec                	je     178 <strcmp+0x18>
 18c:	0f b6 db             	movzbl %bl,%ebx
 18f:	0f b6 c0             	movzbl %al,%eax
 192:	29 d8                	sub    %ebx,%eax
    p++, q++;
  return (uchar)*p - (uchar)*q;
}
 194:	5b                   	pop    %ebx
 195:	5d                   	pop    %ebp
 196:	c3                   	ret    
 197:	90                   	nop
}

int
strcmp(const char *p, const char *q)
{
  while(*p && *p == *q)
 198:	0f b6 1a             	movzbl (%edx),%ebx
 19b:	31 c0                	xor    %eax,%eax
 19d:	0f b6 db             	movzbl %bl,%ebx
 1a0:	29 d8                	sub    %ebx,%eax
    p++, q++;
  return (uchar)*p - (uchar)*q;
}
 1a2:	5b                   	pop    %ebx
 1a3:	5d                   	pop    %ebp
 1a4:	c3                   	ret    
 1a5:	8d 74 26 00          	lea    0x0(%esi,%eiz,1),%esi
 1a9:	8d bc 27 00 00 00 00 	lea    0x0(%edi,%eiz,1),%edi

000001b0 <strlen>:

uint
strlen(char *s)
{
 1b0:	55                   	push   %ebp
  int n;

  for(n = 0; s[n]; n++)
 1b1:	31 d2                	xor    %edx,%edx
  return (uchar)*p - (uchar)*q;
}

uint
strlen(char *s)
{
 1b3:	89 e5                	mov    %esp,%ebp
  int n;

  for(n = 0; s[n]; n++)
 1b5:	31 c0                	xor    %eax,%eax
  return (uchar)*p - (uchar)*q;
}

uint
strlen(char *s)
{
 1b7:	8b 4d 08             	mov    0x8(%ebp),%ecx
  int n;

  for(n = 0; s[n]; n++)
 1ba:	80 39 00             	cmpb   $0x0,(%ecx)
 1bd:	74 0c                	je     1cb <strlen+0x1b>
 1bf:	90                   	nop
 1c0:	83 c2 01             	add    $0x1,%edx
 1c3:	80 3c 11 00          	cmpb   $0x0,(%ecx,%edx,1)
 1c7:	89 d0                	mov    %edx,%eax
 1c9:	75 f5                	jne    1c0 <strlen+0x10>
    ;
  return n;
}
 1cb:	5d                   	pop    %ebp
 1cc:	c3                   	ret    
 1cd:	8d 76 00             	lea    0x0(%esi),%esi

000001d0 <memset>:

void*
memset(void *dst, int c, uint n)
{
 1d0:	55                   	push   %ebp
 1d1:	89 e5                	mov    %esp,%ebp
 1d3:	8b 55 08             	mov    0x8(%ebp),%edx
 1d6:	57                   	push   %edi
}

static inline void
stosb(void *addr, int data, int cnt)
{
  asm volatile("cld; rep stosb" :
 1d7:	8b 4d 10             	mov    0x10(%ebp),%ecx
 1da:	8b 45 0c             	mov    0xc(%ebp),%eax
 1dd:	89 d7                	mov    %edx,%edi
 1df:	fc                   	cld    
 1e0:	f3 aa                	rep stos %al,%es:(%edi)
  stosb(dst, c, n);
  return dst;
}
 1e2:	89 d0                	mov    %edx,%eax
 1e4:	5f                   	pop    %edi
 1e5:	5d                   	pop    %ebp
 1e6:	c3                   	ret    
 1e7:	89 f6                	mov    %esi,%esi
 1e9:	8d bc 27 00 00 00 00 	lea    0x0(%edi,%eiz,1),%edi

000001f0 <strchr>:

char*
strchr(const char *s, char c)
{
 1f0:	55                   	push   %ebp
 1f1:	89 e5                	mov    %esp,%ebp
 1f3:	8b 45 08             	mov    0x8(%ebp),%eax
 1f6:	0f b6 4d 0c          	movzbl 0xc(%ebp),%ecx
  for(; *s; s++)
 1fa:	0f b6 10             	movzbl (%eax),%edx
 1fd:	84 d2                	test   %dl,%dl
 1ff:	75 11                	jne    212 <strchr+0x22>
 201:	eb 15                	jmp    218 <strchr+0x28>
 203:	90                   	nop
 204:	8d 74 26 00          	lea    0x0(%esi,%eiz,1),%esi
 208:	83 c0 01             	add    $0x1,%eax
 20b:	0f b6 10             	movzbl (%eax),%edx
 20e:	84 d2                	test   %dl,%dl
 210:	74 06                	je     218 <strchr+0x28>
    if(*s == c)
 212:	38 ca                	cmp    %cl,%dl
 214:	75 f2                	jne    208 <strchr+0x18>
      return (char*)s;
  return 0;
}
 216:	5d                   	pop    %ebp
 217:	c3                   	ret    
}

char*
strchr(const char *s, char c)
{
  for(; *s; s++)
 218:	31 c0                	xor    %eax,%eax
    if(*s == c)
      return (char*)s;
  return 0;
}
 21a:	5d                   	pop    %ebp
 21b:	90                   	nop
 21c:	8d 74 26 00          	lea    0x0(%esi,%eiz,1),%esi
 220:	c3                   	ret    
 221:	eb 0d                	jmp    230 <atoi>
 223:	90                   	nop
 224:	90                   	nop
 225:	90                   	nop
 226:	90                   	nop
 227:	90                   	nop
 228:	90                   	nop
 229:	90                   	nop
 22a:	90                   	nop
 22b:	90                   	nop
 22c:	90                   	nop
 22d:	90                   	nop
 22e:	90                   	nop
 22f:	90                   	nop

00000230 <atoi>:
  return r;
}

int
atoi(const char *s)
{
 230:	55                   	push   %ebp
  int n;

  n = 0;
  while('0' <= *s && *s <= '9')
 231:	31 c0                	xor    %eax,%eax
  return r;
}

int
atoi(const char *s)
{
 233:	89 e5                	mov    %esp,%ebp
 235:	8b 4d 08             	mov    0x8(%ebp),%ecx
 238:	53                   	push   %ebx
  int n;

  n = 0;
  while('0' <= *s && *s <= '9')
 239:	0f b6 11             	movzbl (%ecx),%edx
 23c:	8d 5a d0             	lea    -0x30(%edx),%ebx
 23f:	80 fb 09             	cmp    $0x9,%bl
 242:	77 1c                	ja     260 <atoi+0x30>
 244:	8d 74 26 00          	lea    0x0(%esi,%eiz,1),%esi
    n = n*10 + *s++ - '0';
 248:	0f be d2             	movsbl %dl,%edx
 24b:	83 c1 01             	add    $0x1,%ecx
 24e:	8d 04 80             	lea    (%eax,%eax,4),%eax
 251:	8d 44 42 d0          	lea    -0x30(%edx,%eax,2),%eax
atoi(const char *s)
{
  int n;

  n = 0;
  while('0' <= *s && *s <= '9')
 255:	0f b6 11             	movzbl (%ecx),%edx
 258:	8d 5a d0             	lea    -0x30(%edx),%ebx
 25b:	80 fb 09             	cmp    $0x9,%bl
 25e:	76 e8                	jbe    248 <atoi+0x18>
    n = n*10 + *s++ - '0';
  return n;
}
 260:	5b                   	pop    %ebx
 261:	5d                   	pop    %ebp
 262:	c3                   	ret    
 263:	8d b6 00 00 00 00    	lea    0x0(%esi),%esi
 269:	8d bc 27 00 00 00 00 	lea    0x0(%edi,%eiz,1),%edi

00000270 <memmove>:

void*
memmove(void *vdst, void *vsrc, int n)
{
 270:	55                   	push   %ebp
 271:	89 e5                	mov    %esp,%ebp
 273:	56                   	push   %esi
 274:	8b 45 08             	mov    0x8(%ebp),%eax
 277:	53                   	push   %ebx
 278:	8b 5d 10             	mov    0x10(%ebp),%ebx
 27b:	8b 75 0c             	mov    0xc(%ebp),%esi
  char *dst, *src;

  dst = vdst;
  src = vsrc;
  while(n-- > 0)
 27e:	85 db                	test   %ebx,%ebx
 280:	7e 14                	jle    296 <memmove+0x26>
    n = n*10 + *s++ - '0';
  return n;
}

void*
memmove(void *vdst, void *vsrc, int n)
 282:	31 d2                	xor    %edx,%edx
 284:	8d 74 26 00          	lea    0x0(%esi,%eiz,1),%esi
  char *dst, *src;

  dst = vdst;
  src = vsrc;
  while(n-- > 0)
    *dst++ = *src++;
 288:	0f b6 0c 16          	movzbl (%esi,%edx,1),%ecx
 28c:	88 0c 10             	mov    %cl,(%eax,%edx,1)
 28f:	83 c2 01             	add    $0x1,%edx
{
  char *dst, *src;

  dst = vdst;
  src = vsrc;
  while(n-- > 0)
 292:	39 da                	cmp    %ebx,%edx
 294:	75 f2                	jne    288 <memmove+0x18>
    *dst++ = *src++;
  return vdst;
}
 296:	5b                   	pop    %ebx
 297:	5e                   	pop    %esi
 298:	5d                   	pop    %ebp
 299:	c3                   	ret    
 29a:	8d b6 00 00 00 00    	lea    0x0(%esi),%esi

000002a0 <stat>:
  return buf;
}

int
stat(char *n, struct stat *st)
{
 2a0:	55                   	push   %ebp
 2a1:	89 e5                	mov    %esp,%ebp
 2a3:	83 ec 18             	sub    $0x18,%esp
  int fd;
  int r;

  fd = open(n, O_RDONLY);
 2a6:	8b 45 08             	mov    0x8(%ebp),%eax
  return buf;
}

int
stat(char *n, struct stat *st)
{
 2a9:	89 5d f8             	mov    %ebx,-0x8(%ebp)
 2ac:	89 75 fc             	mov    %esi,-0x4(%ebp)
  int fd;
  int r;

  fd = open(n, O_RDONLY);
  if(fd < 0)
 2af:	be ff ff ff ff       	mov    $0xffffffff,%esi
stat(char *n, struct stat *st)
{
  int fd;
  int r;

  fd = open(n, O_RDONLY);
 2b4:	c7 44 24 04 00 00 00 	movl   $0x0,0x4(%esp)
 2bb:	00 
 2bc:	89 04 24             	mov    %eax,(%esp)
 2bf:	e8 d4 00 00 00       	call   398 <open>
  if(fd < 0)
 2c4:	85 c0                	test   %eax,%eax
stat(char *n, struct stat *st)
{
  int fd;
  int r;

  fd = open(n, O_RDONLY);
 2c6:	89 c3                	mov    %eax,%ebx
  if(fd < 0)
 2c8:	78 19                	js     2e3 <stat+0x43>
    return -1;
  r = fstat(fd, st);
 2ca:	8b 45 0c             	mov    0xc(%ebp),%eax
 2cd:	89 1c 24             	mov    %ebx,(%esp)
 2d0:	89 44 24 04          	mov    %eax,0x4(%esp)
 2d4:	e8 d7 00 00 00       	call   3b0 <fstat>
  close(fd);
 2d9:	89 1c 24             	mov    %ebx,(%esp)
  int r;

  fd = open(n, O_RDONLY);
  if(fd < 0)
    return -1;
  r = fstat(fd, st);
 2dc:	89 c6                	mov    %eax,%esi
  close(fd);
 2de:	e8 9d 00 00 00       	call   380 <close>
  return r;
}
 2e3:	89 f0                	mov    %esi,%eax
 2e5:	8b 5d f8             	mov    -0x8(%ebp),%ebx
 2e8:	8b 75 fc             	mov    -0x4(%ebp),%esi
 2eb:	89 ec                	mov    %ebp,%esp
 2ed:	5d                   	pop    %ebp
 2ee:	c3                   	ret    
 2ef:	90                   	nop

000002f0 <gets>:
  return 0;
}

char*
gets(char *buf, int max)
{
 2f0:	55                   	push   %ebp
 2f1:	89 e5                	mov    %esp,%ebp
 2f3:	57                   	push   %edi
 2f4:	56                   	push   %esi
 2f5:	31 f6                	xor    %esi,%esi
 2f7:	53                   	push   %ebx
 2f8:	83 ec 2c             	sub    $0x2c,%esp
 2fb:	8b 7d 08             	mov    0x8(%ebp),%edi
  int i, cc;
  char c;

  for(i=0; i+1 < max; ){
 2fe:	eb 06                	jmp    306 <gets+0x16>
    cc = read(0, &c, 1);
    if(cc < 1)
      break;
    buf[i++] = c;
    if(c == '\n' || c == '\r')
 300:	3c 0a                	cmp    $0xa,%al
 302:	74 39                	je     33d <gets+0x4d>
 304:	89 de                	mov    %ebx,%esi
gets(char *buf, int max)
{
  int i, cc;
  char c;

  for(i=0; i+1 < max; ){
 306:	8d 5e 01             	lea    0x1(%esi),%ebx
 309:	3b 5d 0c             	cmp    0xc(%ebp),%ebx
 30c:	7d 31                	jge    33f <gets+0x4f>
    cc = read(0, &c, 1);
 30e:	8d 45 e7             	lea    -0x19(%ebp),%eax
 311:	c7 44 24 08 01 00 00 	movl   $0x1,0x8(%esp)
 318:	00 
 319:	89 44 24 04          	mov    %eax,0x4(%esp)
 31d:	c7 04 24 00 00 00 00 	movl   $0x0,(%esp)
 324:	e8 47 00 00 00       	call   370 <read>
    if(cc < 1)
 329:	85 c0                	test   %eax,%eax
 32b:	7e 12                	jle    33f <gets+0x4f>
      break;
    buf[i++] = c;
 32d:	0f b6 45 e7          	movzbl -0x19(%ebp),%eax
 331:	88 44 1f ff          	mov    %al,-0x1(%edi,%ebx,1)
    if(c == '\n' || c == '\r')
 335:	0f b6 45 e7          	movzbl -0x19(%ebp),%eax
 339:	3c 0d                	cmp    $0xd,%al
 33b:	75 c3                	jne    300 <gets+0x10>
 33d:	89 de                	mov    %ebx,%esi
      break;
  }
  buf[i] = '\0';
 33f:	c6 04 37 00          	movb   $0x0,(%edi,%esi,1)
  return buf;
}
 343:	89 f8                	mov    %edi,%eax
 345:	83 c4 2c             	add    $0x2c,%esp
 348:	5b                   	pop    %ebx
 349:	5e                   	pop    %esi
 34a:	5f                   	pop    %edi
 34b:	5d                   	pop    %ebp
 34c:	c3                   	ret    
 34d:	90                   	nop
 34e:	90                   	nop
 34f:	90                   	nop

00000350 <fork>:
  name: \
    movl $SYS_ ## name, %eax; \
    int $T_SYSCALL; \
    ret

SYSCALL(fork)
 350:	b8 01 00 00 00       	mov    $0x1,%eax
 355:	cd 40                	int    $0x40
 357:	c3                   	ret    

00000358 <exit>:
SYSCALL(exit)
 358:	b8 02 00 00 00       	mov    $0x2,%eax
 35d:	cd 40                	int    $0x40
 35f:	c3                   	ret    

00000360 <wait>:
SYSCALL(wait)
 360:	b8 03 00 00 00       	mov    $0x3,%eax
 365:	cd 40                	int    $0x40
 367:	c3                   	ret    

00000368 <pipe>:
SYSCALL(pipe)
 368:	b8 04 00 00 00       	mov    $0x4,%eax
 36d:	cd 40                	int    $0x40
 36f:	c3                   	ret    

00000370 <read>:
SYSCALL(read)
 370:	b8 05 00 00 00       	mov    $0x5,%eax
 375:	cd 40                	int    $0x40
 377:	c3                   	ret    

00000378 <write>:
SYSCALL(write)
 378:	b8 10 00 00 00       	mov    $0x10,%eax
 37d:	cd 40                	int    $0x40
 37f:	c3                   	ret    

00000380 <close>:
SYSCALL(close)
 380:	b8 15 00 00 00       	mov    $0x15,%eax
 385:	cd 40                	int    $0x40
 387:	c3                   	ret    

00000388 <kill>:
SYSCALL(kill)
 388:	b8 06 00 00 00       	mov    $0x6,%eax
 38d:	cd 40                	int    $0x40
 38f:	c3                   	ret    

00000390 <exec>:
SYSCALL(exec)
 390:	b8 07 00 00 00       	mov    $0x7,%eax
 395:	cd 40                	int    $0x40
 397:	c3                   	ret    

00000398 <open>:
SYSCALL(open)
 398:	b8 0f 00 00 00       	mov    $0xf,%eax
 39d:	cd 40                	int    $0x40
 39f:	c3                   	ret    

000003a0 <mknod>:
SYSCALL(mknod)
 3a0:	b8 11 00 00 00       	mov    $0x11,%eax
 3a5:	cd 40                	int    $0x40
 3a7:	c3                   	ret    

000003a8 <unlink>:
SYSCALL(unlink)
 3a8:	b8 12 00 00 00       	mov    $0x12,%eax
 3ad:	cd 40                	int    $0x40
 3af:	c3                   	ret    

000003b0 <fstat>:
SYSCALL(fstat)
 3b0:	b8 08 00 00 00       	mov    $0x8,%eax
 3b5:	cd 40                	int    $0x40
 3b7:	c3                   	ret    

000003b8 <link>:
SYSCALL(link)
 3b8:	b8 13 00 00 00       	mov    $0x13,%eax
 3bd:	cd 40                	int    $0x40
 3bf:	c3                   	ret    

000003c0 <mkdir>:
SYSCALL(mkdir)
 3c0:	b8 14 00 00 00       	mov    $0x14,%eax
 3c5:	cd 40                	int    $0x40
 3c7:	c3                   	ret    

000003c8 <chdir>:
SYSCALL(chdir)
 3c8:	b8 09 00 00 00       	mov    $0x9,%eax
 3cd:	cd 40                	int    $0x40
 3cf:	c3                   	ret    

000003d0 <dup>:
SYSCALL(dup)
 3d0:	b8 0a 00 00 00       	mov    $0xa,%eax
 3d5:	cd 40                	int    $0x40
 3d7:	c3                   	ret    

000003d8 <getpid>:
SYSCALL(getpid)
 3d8:	b8 0b 00 00 00       	mov    $0xb,%eax
 3dd:	cd 40                	int    $0x40
 3df:	c3                   	ret    

000003e0 <sbrk>:
SYSCALL(sbrk)
 3e0:	b8 0c 00 00 00       	mov    $0xc,%eax
 3e5:	cd 40                	int    $0x40
 3e7:	c3                   	ret    

000003e8 <sleep>:
SYSCALL(sleep)
 3e8:	b8 0d 00 00 00       	mov    $0xd,%eax
 3ed:	cd 40                	int    $0x40
 3ef:	c3                   	ret    

000003f0 <uptime>:
SYSCALL(uptime)
 3f0:	b8 0e 00 00 00       	mov    $0xe,%eax
 3f5:	cd 40                	int    $0x40
 3f7:	c3                   	ret    

000003f8 <test>:
SYSCALL(test)
 3f8:	b8 16 00 00 00       	mov    $0x16,%eax
 3fd:	cd 40                	int    $0x40
 3ff:	c3                   	ret    
